#include <math.h>
#include <stdio.h>
#include <stdlib.h>
#include <string.h>

int main()
{
	int n,i,j,max=0,b[500]={0},s,m;
	char str[500],c[500][6];
	scanf("%d",&n);
	scanf("%s",str);
	m=strlen(str);
	for(i=0;i<m-n+1;i++)
	{
		for(j=0;j<n;j++)
		{
			c[i][j]=str[i+j];
		}
		c[i][n]='\0';
	}
	for(i=0;i<m-n+1;i++)
	{
		if(b[i]==0)
		{
			s=0;
			for(j=i;j<m-n+1;j++)
			{
				if(strcmp(c[i],c[j])==0)
				{
					s=s+1;
					b[j]=s;
					b[i]=s+1;
				}
				if(s>max) max=s;
			}
		}
	}
	if (max==1) printf("NO\n");
	else
	{
		printf("%d\n",max);
		for(i=0;i<m-n+1;i++)
		{
			if(b[i]==max+1)
			{
				printf("%s\n",c[i]);
			}
		}
	}
	return 0;
}
