; ModuleID = '51/863.c'
source_filename = "51/863.c"
target datalayout = "e-m:e-p270:32:32-p271:32:32-p272:64:64-i64:64-f80:128-n8:16:32:64-S128"
target triple = "x86_64-pc-linux-gnu"

@.str = private unnamed_addr constant [3 x i8] c"%d\00", align 1
@.str.1 = private unnamed_addr constant [3 x i8] c"%s\00", align 1
@.str.2 = private unnamed_addr constant [4 x i8] c"NO\0A\00", align 1
@.str.3 = private unnamed_addr constant [4 x i8] c"%d\0A\00", align 1
@.str.4 = private unnamed_addr constant [4 x i8] c"%s\0A\00", align 1

; Function Attrs: noinline nounwind uwtable
define dso_local i32 @main() #0 {
  %1 = alloca i32, align 4
  %2 = alloca i32, align 4
  %3 = alloca i32, align 4
  %4 = alloca i32, align 4
  %5 = alloca i32, align 4
  %6 = alloca [500 x i32], align 16
  %7 = alloca i32, align 4
  %8 = alloca i32, align 4
  %9 = alloca [500 x i8], align 16
  %10 = alloca [500 x [6 x i8]], align 16
  store i32 0, i32* %1, align 4
  store i32 0, i32* %5, align 4
  %11 = bitcast [500 x i32]* %6 to i8*
  call void @llvm.memset.p0i8.i64(i8* align 16 %11, i8 0, i64 2000, i1 false)
  %12 = call i32 (i8*, ...) @__isoc99_scanf(i8* getelementptr inbounds ([3 x i8], [3 x i8]* @.str, i64 0, i64 0), i32* %2)
  %13 = getelementptr inbounds [500 x i8], [500 x i8]* %9, i64 0, i64 0
  %14 = call i32 (i8*, ...) @__isoc99_scanf(i8* getelementptr inbounds ([3 x i8], [3 x i8]* @.str.1, i64 0, i64 0), i8* %13)
  %15 = getelementptr inbounds [500 x i8], [500 x i8]* %9, i64 0, i64 0
  %16 = call i64 @strlen(i8* %15) #4
  %17 = trunc i64 %16 to i32
  store i32 %17, i32* %8, align 4
  store i32 0, i32* %3, align 4
  br label %18

18:                                               ; preds = %53, %0
  %19 = load i32, i32* %3, align 4
  %20 = load i32, i32* %8, align 4
  %21 = load i32, i32* %2, align 4
  %22 = sub nsw i32 %20, %21
  %23 = add nsw i32 %22, 1
  %24 = icmp slt i32 %19, %23
  br i1 %24, label %25, label %56

25:                                               ; preds = %18
  store i32 0, i32* %4, align 4
  br label %26

26:                                               ; preds = %43, %25
  %27 = load i32, i32* %4, align 4
  %28 = load i32, i32* %2, align 4
  %29 = icmp slt i32 %27, %28
  br i1 %29, label %30, label %46

30:                                               ; preds = %26
  %31 = load i32, i32* %3, align 4
  %32 = load i32, i32* %4, align 4
  %33 = add nsw i32 %31, %32
  %34 = sext i32 %33 to i64
  %35 = getelementptr inbounds [500 x i8], [500 x i8]* %9, i64 0, i64 %34
  %36 = load i8, i8* %35, align 1
  %37 = load i32, i32* %3, align 4
  %38 = sext i32 %37 to i64
  %39 = getelementptr inbounds [500 x [6 x i8]], [500 x [6 x i8]]* %10, i64 0, i64 %38
  %40 = load i32, i32* %4, align 4
  %41 = sext i32 %40 to i64
  %42 = getelementptr inbounds [6 x i8], [6 x i8]* %39, i64 0, i64 %41
  store i8 %36, i8* %42, align 1
  br label %43

43:                                               ; preds = %30
  %44 = load i32, i32* %4, align 4
  %45 = add nsw i32 %44, 1
  store i32 %45, i32* %4, align 4
  br label %26

46:                                               ; preds = %26
  %47 = load i32, i32* %3, align 4
  %48 = sext i32 %47 to i64
  %49 = getelementptr inbounds [500 x [6 x i8]], [500 x [6 x i8]]* %10, i64 0, i64 %48
  %50 = load i32, i32* %2, align 4
  %51 = sext i32 %50 to i64
  %52 = getelementptr inbounds [6 x i8], [6 x i8]* %49, i64 0, i64 %51
  store i8 0, i8* %52, align 1
  br label %53

53:                                               ; preds = %46
  %54 = load i32, i32* %3, align 4
  %55 = add nsw i32 %54, 1
  store i32 %55, i32* %3, align 4
  br label %18

56:                                               ; preds = %18
  store i32 0, i32* %3, align 4
  br label %57

57:                                               ; preds = %114, %56
  %58 = load i32, i32* %3, align 4
  %59 = load i32, i32* %8, align 4
  %60 = load i32, i32* %2, align 4
  %61 = sub nsw i32 %59, %60
  %62 = add nsw i32 %61, 1
  %63 = icmp slt i32 %58, %62
  br i1 %63, label %64, label %117

64:                                               ; preds = %57
  %65 = load i32, i32* %3, align 4
  %66 = sext i32 %65 to i64
  %67 = getelementptr inbounds [500 x i32], [500 x i32]* %6, i64 0, i64 %66
  %68 = load i32, i32* %67, align 4
  %69 = icmp eq i32 %68, 0
  br i1 %69, label %70, label %113

70:                                               ; preds = %64
  store i32 0, i32* %7, align 4
  %71 = load i32, i32* %3, align 4
  store i32 %71, i32* %4, align 4
  br label %72

72:                                               ; preds = %109, %70
  %73 = load i32, i32* %4, align 4
  %74 = load i32, i32* %8, align 4
  %75 = load i32, i32* %2, align 4
  %76 = sub nsw i32 %74, %75
  %77 = add nsw i32 %76, 1
  %78 = icmp slt i32 %73, %77
  br i1 %78, label %79, label %112

79:                                               ; preds = %72
  %80 = load i32, i32* %3, align 4
  %81 = sext i32 %80 to i64
  %82 = getelementptr inbounds [500 x [6 x i8]], [500 x [6 x i8]]* %10, i64 0, i64 %81
  %83 = getelementptr inbounds [6 x i8], [6 x i8]* %82, i64 0, i64 0
  %84 = load i32, i32* %4, align 4
  %85 = sext i32 %84 to i64
  %86 = getelementptr inbounds [500 x [6 x i8]], [500 x [6 x i8]]* %10, i64 0, i64 %85
  %87 = getelementptr inbounds [6 x i8], [6 x i8]* %86, i64 0, i64 0
  %88 = call i32 @strcmp(i8* %83, i8* %87) #4
  %89 = icmp eq i32 %88, 0
  br i1 %89, label %90, label %102

90:                                               ; preds = %79
  %91 = load i32, i32* %7, align 4
  %92 = add nsw i32 %91, 1
  store i32 %92, i32* %7, align 4
  %93 = load i32, i32* %7, align 4
  %94 = load i32, i32* %4, align 4
  %95 = sext i32 %94 to i64
  %96 = getelementptr inbounds [500 x i32], [500 x i32]* %6, i64 0, i64 %95
  store i32 %93, i32* %96, align 4
  %97 = load i32, i32* %7, align 4
  %98 = add nsw i32 %97, 1
  %99 = load i32, i32* %3, align 4
  %100 = sext i32 %99 to i64
  %101 = getelementptr inbounds [500 x i32], [500 x i32]* %6, i64 0, i64 %100
  store i32 %98, i32* %101, align 4
  br label %102

102:                                              ; preds = %90, %79
  %103 = load i32, i32* %7, align 4
  %104 = load i32, i32* %5, align 4
  %105 = icmp sgt i32 %103, %104
  br i1 %105, label %106, label %108

106:                                              ; preds = %102
  %107 = load i32, i32* %7, align 4
  store i32 %107, i32* %5, align 4
  br label %108

108:                                              ; preds = %106, %102
  br label %109

109:                                              ; preds = %108
  %110 = load i32, i32* %4, align 4
  %111 = add nsw i32 %110, 1
  store i32 %111, i32* %4, align 4
  br label %72

112:                                              ; preds = %72
  br label %113

113:                                              ; preds = %112, %64
  br label %114

114:                                              ; preds = %113
  %115 = load i32, i32* %3, align 4
  %116 = add nsw i32 %115, 1
  store i32 %116, i32* %3, align 4
  br label %57

117:                                              ; preds = %57
  %118 = load i32, i32* %5, align 4
  %119 = icmp eq i32 %118, 1
  br i1 %119, label %120, label %122

120:                                              ; preds = %117
  %121 = call i32 (i8*, ...) @printf(i8* getelementptr inbounds ([4 x i8], [4 x i8]* @.str.2, i64 0, i64 0))
  br label %151

122:                                              ; preds = %117
  %123 = load i32, i32* %5, align 4
  %124 = call i32 (i8*, ...) @printf(i8* getelementptr inbounds ([4 x i8], [4 x i8]* @.str.3, i64 0, i64 0), i32 %123)
  store i32 0, i32* %3, align 4
  br label %125

125:                                              ; preds = %147, %122
  %126 = load i32, i32* %3, align 4
  %127 = load i32, i32* %8, align 4
  %128 = load i32, i32* %2, align 4
  %129 = sub nsw i32 %127, %128
  %130 = add nsw i32 %129, 1
  %131 = icmp slt i32 %126, %130
  br i1 %131, label %132, label %150

132:                                              ; preds = %125
  %133 = load i32, i32* %3, align 4
  %134 = sext i32 %133 to i64
  %135 = getelementptr inbounds [500 x i32], [500 x i32]* %6, i64 0, i64 %134
  %136 = load i32, i32* %135, align 4
  %137 = load i32, i32* %5, align 4
  %138 = add nsw i32 %137, 1
  %139 = icmp eq i32 %136, %138
  br i1 %139, label %140, label %146

140:                                              ; preds = %132
  %141 = load i32, i32* %3, align 4
  %142 = sext i32 %141 to i64
  %143 = getelementptr inbounds [500 x [6 x i8]], [500 x [6 x i8]]* %10, i64 0, i64 %142
  %144 = getelementptr inbounds [6 x i8], [6 x i8]* %143, i64 0, i64 0
  %145 = call i32 (i8*, ...) @printf(i8* getelementptr inbounds ([4 x i8], [4 x i8]* @.str.4, i64 0, i64 0), i8* %144)
  br label %146

146:                                              ; preds = %140, %132
  br label %147

147:                                              ; preds = %146
  %148 = load i32, i32* %3, align 4
  %149 = add nsw i32 %148, 1
  store i32 %149, i32* %3, align 4
  br label %125

150:                                              ; preds = %125
  br label %151

151:                                              ; preds = %150, %120
  ret i32 0
}

; Function Attrs: argmemonly nounwind willreturn
declare void @llvm.memset.p0i8.i64(i8* nocapture writeonly, i8, i64, i1 immarg) #1

declare dso_local i32 @__isoc99_scanf(i8*, ...) #2

; Function Attrs: nounwind readonly
declare dso_local i64 @strlen(i8*) #3

; Function Attrs: nounwind readonly
declare dso_local i32 @strcmp(i8*, i8*) #3

declare dso_local i32 @printf(i8*, ...) #2


!llvm.module.flags = !{!0}
!llvm.ident = !{!1}

!0 = !{i32 1, !"wchar_size", i32 4}
!1 = !{!"clang version 10.0.0-4ubuntu1 "}
